; Function Attrs: mustprogress uwtable
define dso_local noundef zeroext i1 @_ZNK4pbrt9Primitive10IntersectPERKNS_3RayEf(ptr noundef nonnull readonly align 8 captures(none) dereferenceable(8) %0, ptr noundef nonnull align 8 dereferenceable(40) %1, float noundef %2) local_unnamed_addr #2 align 2 {
  %4 = alloca float, align 4
  %5 = alloca %class.anon.9, align 8
  store float %2, ptr %4, align 4, !tbaa !12
  call void @llvm.lifetime.start.p0(i64 16, ptr nonnull %5) #24
  store ptr %1, ptr %5, align 8, !tbaa !14
  %6 = getelementptr inbounds nuw i8, ptr %5, i64 8
  store ptr %4, ptr %6, align 8, !tbaa !17
  %7 = load i64, ptr %0, align 8, !tbaa !4
  %8 = and i64 %7, 144115188075855871
  %9 = inttoptr i64 %8 to ptr
  %10 = lshr i64 %7, 57
  %11 = trunc nuw nsw i64 %10 to i32
  %12 = add nsw i32 %11, -1
  %13 = call fastcc noundef zeroext i1 @"_ZN4pbrt6detail11DispatchCPUIRZNKS_9Primitive10IntersectPERKNS_3RayEfE3$_0bNS_15SimplePrimitiveENS_18GeometricPrimitiveENS_20TransformedPrimitiveENS_17AnimatedPrimitiveENS_12BVHAggregateENS_15KdTreeAggregateEEEDaOT_PKvi"(ptr noundef nonnull align 8 dereferenceable(16) %5, ptr noundef %9, i32 noundef %12)
  call void @llvm.lifetime.end.p0(i64 16, ptr nonnull %5) #24
  ret i1 %13
}